target datalayout = "e-m:e-p270:32:32-p271:32:32-p272:64:64-i64:64-i128:128-f80:128-n8:16:32:64-S128"
target triple = "x86_64-pc-linux-gnu"

%struct.PaUnixMutex = type { %union.pthread_mutex_t }
%union.pthread_mutex_t = type { %struct.__pthread_mutex_s }
%struct.__pthread_mutex_s = type { i32, i32, i32, i32, i32, i16, i16, %struct.__pthread_internal_list }
%struct.__pthread_internal_list = type { ptr, ptr }

@paUtilErr_ = internal global i32 0, align 4
@paUnixMainThread = global i64 0, align 8
@.str.14 = private unnamed_addr constant [194 x i8] c"Expression 'pthread_mutex_lock( &self->mtx )' failed in 'generated/home/dtcxzyw/WorkSpace/Projects/compilers/llvm-opt-benchmark/bench/portaudio/portaudio/src/os/unix/pa_unix_util.c', line: 543\0A\00", align 1

; Function Attrs: inlinehint nounwind willreturn memory(none) uwtable
define available_externally i32 @pthread_equal(i64 noundef %0, i64 noundef %1) #9 {
  %3 = alloca i64, align 8
  %4 = alloca i64, align 8
  store i64 %0, ptr %3, align 8, !tbaa !3
  store i64 %1, ptr %4, align 8, !tbaa !3
  %5 = load i64, ptr %3, align 8, !tbaa !3
  %6 = load i64, ptr %4, align 8, !tbaa !3
  %7 = icmp eq i64 %5, %6
  %8 = zext i1 %7 to i32
  ret i32 %8
}

; Function Attrs: nounwind uwtable
define i32 @PaUnixMutex_Lock(ptr noundef %0) #0 {
  %2 = alloca ptr, align 8
  %3 = alloca i32, align 4
  store ptr %0, ptr %2, align 8, !tbaa !7
  call void @llvm.lifetime.start.p0(i64 4, ptr %3) #10
  store i32 0, ptr %3, align 4, !tbaa !14
  br label %4

4:                                                ; preds = %1
  %5 = load ptr, ptr %2, align 8, !tbaa !7
  %6 = getelementptr inbounds nuw %struct.PaUnixMutex, ptr %5, i32 0, i32 0
  %7 = call i32 @pthread_mutex_lock(ptr noundef %6) #10
  store i32 %7, ptr @paUtilErr_, align 4, !tbaa !14
  %8 = icmp ne i32 %7, 0
  %9 = zext i1 %8 to i32
  %10 = sext i32 %9 to i64
  %11 = call i64 @llvm.expect.i64(i64 %10, i64 0)
  %12 = icmp ne i64 %11, 0
  br i1 %12, label %13, label %24

13:                                               ; preds = %4
  %14 = call i64 @pthread_self() #12
  %15 = load i64, ptr @paUnixMainThread, align 8, !tbaa !3
  %16 = call i32 @pthread_equal(i64 noundef %14, i64 noundef %15) #12
  %17 = icmp ne i32 %16, 0
  br i1 %17, label %18, label %23

18:                                               ; preds = %13
  %19 = load i32, ptr @paUtilErr_, align 4, !tbaa !14
  %20 = sext i32 %19 to i64
  %21 = load i32, ptr @paUtilErr_, align 4, !tbaa !14
  %22 = call ptr @strerror(i32 noundef %21) #10
  call void @PaUtil_SetLastHostErrorInfo(i32 noundef 8, i64 noundef %20, ptr noundef %22)
  br label %23

23:                                               ; preds = %18, %13
  call void (ptr, ...) @PaUtil_DebugPrint(ptr noundef @.str.14)
  store i32 -9999, ptr %3, align 4, !tbaa !14
  br label %27

24:                                               ; preds = %4
  br label %25

25:                                               ; preds = %24
  br label %26

26:                                               ; preds = %25
  br label %27

27:                                               ; preds = %26, %23
  %28 = load i32, ptr %3, align 4, !tbaa !14
  call void @llvm.lifetime.end.p0(i64 4, ptr %3) #10
  ret i32 %28
}